target datalayout = "e-m:e-p270:32:32-p271:32:32-p272:64:64-i64:64-i128:128-f80:128-n8:16:32:64-S128"
target triple = "x86_64-pc-linux-gnu"

%"class.nanobind::handle" = type { ptr }
%class.anon.70 = type { i8 }
%"struct.nanobind::detail::tuple.72" = type { %"struct.nanobind::detail::type_caster.73" }
%"struct.nanobind::detail::type_caster.73" = type { i32 }

@_ZTI5SEnum = linkonce_odr hidden constant { ptr, ptr } { ptr getelementptr inbounds (ptr, ptr @_ZTVN10__cxxabiv116__enum_type_infoE, i64 2), ptr @_ZTS5SEnum }, comdat, align 8

; Function Attrs: alwaysinline mustprogress nounwind optsize uwtable
define linkonce_odr hidden noundef ptr @_ZNK8nanobind6handle3ptrEv(ptr noundef nonnull align 8 dereferenceable(8) %0) #5 comdat align 2 {
  %2 = alloca ptr, align 8
  store ptr %0, ptr %2, align 8, !tbaa !12
  %3 = load ptr, ptr %2, align 8
  %4 = getelementptr inbounds nuw %"class.nanobind::handle", ptr %3, i32 0, i32 0
  %5 = load ptr, ptr %4, align 8, !tbaa !14
  ret ptr %5
}

; Function Attrs: alwaysinline mustprogress nounwind optsize uwtable
define linkonce_odr hidden ptr @_ZN8nanobind6detail11type_casterIiiE8from_cppEiNS_9rv_policyEPNS0_12cleanup_listE(i32 noundef %0, i32 noundef %1, ptr noundef %2) #5 comdat align 2 personality ptr @__gxx_personality_v0 {
  %4 = alloca %"class.nanobind::handle", align 8
  %5 = alloca i32, align 4
  %6 = alloca i32, align 4
  %7 = alloca ptr, align 8
  store i32 %0, ptr %5, align 4, !tbaa !137
  store i32 %1, ptr %6, align 4, !tbaa !127
  store ptr %2, ptr %7, align 8, !tbaa !129
  %8 = load i32, ptr %5, align 4, !tbaa !137
  %9 = sext i32 %8 to i64
  %10 = invoke ptr @PyLong_FromLong(i64 noundef %9) #14
          to label %11 unwind label %15

11:                                               ; preds = %3
  invoke void @_ZN8nanobind6handleC2EPK7_object(ptr noundef nonnull align 8 dereferenceable(8) %4, ptr noundef %10) #14
          to label %12 unwind label %15

12:                                               ; preds = %11
  %13 = getelementptr inbounds nuw %"class.nanobind::handle", ptr %4, i32 0, i32 0
  %14 = load ptr, ptr %13, align 8
  ret ptr %14

15:                                               ; preds = %11, %3
  %16 = landingpad { ptr, i32 }
          catch ptr null
  %17 = extractvalue { ptr, i32 } %16, 0
  call void @__clang_call_terminate(ptr %17) #17
  unreachable
}

; Function Attrs: inlinehint mustprogress nounwind optsize uwtable
define internal noundef i32 @"_ZZL27nanobind_init_test_enum_extRN8nanobind7module_EENK3$_8clE5SEnum"(ptr noundef nonnull align 1 dereferenceable(1) %0, i32 noundef %1) #11 align 2 {
  %3 = alloca ptr, align 8
  %4 = alloca i32, align 4
  store ptr %0, ptr %3, align 8, !tbaa !58
  store i32 %1, ptr %4, align 4, !tbaa !20
  %5 = load i32, ptr %4, align 4, !tbaa !20
  ret i32 %5
}

; Function Attrs: mustprogress nounwind optsize uwtable
define linkonce_odr hidden noundef nonnull align 4 dereferenceable(4) ptr @_ZN8nanobind6detail11type_casterI5SEnumiEcvOS2_Ev(ptr noundef nonnull align 4 dereferenceable(4) %0) #8 comdat align 2 {
  %2 = alloca ptr, align 8
  store ptr %0, ptr %2, align 8, !tbaa !202
  %3 = load ptr, ptr %2, align 8
  %4 = getelementptr inbounds nuw %"struct.nanobind::detail::type_caster.73", ptr %3, i32 0, i32 0
  ret ptr %4
}

; Function Attrs: alwaysinline mustprogress nounwind optsize uwtable
define linkonce_odr hidden noundef zeroext i1 @_ZN8nanobind6detail11type_casterI5SEnumiE11from_pythonENS_6handleEhPNS0_12cleanup_listE(ptr noundef nonnull align 4 dereferenceable(4) %0, ptr %1, i8 noundef zeroext %2, ptr noundef %3) #5 comdat align 2 {
  %5 = alloca %"class.nanobind::handle", align 8
  %6 = alloca ptr, align 8
  %7 = alloca i8, align 1
  %8 = alloca ptr, align 8
  %9 = alloca i64, align 8
  %10 = alloca i8, align 1
  %11 = getelementptr inbounds nuw %"class.nanobind::handle", ptr %5, i32 0, i32 0
  store ptr %1, ptr %11, align 8
  store ptr %0, ptr %6, align 8, !tbaa !202
  store i8 %2, ptr %7, align 1, !tbaa !22
  store ptr %3, ptr %8, align 8, !tbaa !129
  %12 = load ptr, ptr %6, align 8
  call void @llvm.lifetime.start.p0(i64 8, ptr %9) #15
  call void @llvm.lifetime.start.p0(i64 1, ptr %10) #15
  %13 = call noundef ptr @_ZNK8nanobind6handle3ptrEv(ptr noundef nonnull align 8 dereferenceable(8) %5) #14
  %14 = load i8, ptr %7, align 1, !tbaa !22
  %15 = call noundef zeroext i1 @_ZN8nanobind6detail16enum_from_pythonEPKSt9type_infoP7_objectPlh(ptr noundef @_ZTI5SEnum, ptr noundef %13, ptr noundef %9, i8 noundef zeroext %14) #16
  %16 = zext i1 %15 to i8
  store i8 %16, ptr %10, align 1, !tbaa !69
  %17 = load i64, ptr %9, align 8, !tbaa !102
  %18 = trunc i64 %17 to i32
  %19 = getelementptr inbounds nuw %"struct.nanobind::detail::type_caster.73", ptr %12, i32 0, i32 0
  store i32 %18, ptr %19, align 4, !tbaa !204
  %20 = load i8, ptr %10, align 1, !tbaa !69, !range !70, !noundef !71
  %21 = trunc i8 %20 to i1
  call void @llvm.lifetime.end.p0(i64 1, ptr %10) #15
  call void @llvm.lifetime.end.p0(i64 8, ptr %9) #15
  ret i1 %21
}

; Function Attrs: alwaysinline mustprogress nounwind optsize uwtable
define linkonce_odr hidden void @_ZN8nanobind6handleC2EPK7_object(ptr noundef nonnull align 8 dereferenceable(8) %0, ptr noundef %1) unnamed_addr #5 comdat align 2 {
  %3 = alloca ptr, align 8
  %4 = alloca ptr, align 8
  store ptr %0, ptr %3, align 8, !tbaa !12
  store ptr %1, ptr %4, align 8, !tbaa !3
  %5 = load ptr, ptr %3, align 8
  %6 = getelementptr inbounds nuw %"class.nanobind::handle", ptr %5, i32 0, i32 0
  %7 = load ptr, ptr %4, align 8, !tbaa !3
  store ptr %7, ptr %6, align 8, !tbaa !14
  ret void
}

; Function Attrs: alwaysinline mustprogress nounwind optsize uwtable
define linkonce_odr hidden noundef nonnull align 4 dereferenceable(4) ptr @_ZN8nanobind6detail5tupleIJNS0_11type_casterI5SEnumiEEEE3getILm0EEERDav(ptr noundef nonnull align 4 dereferenceable(4) %0) #5 comdat align 2 {
  %2 = alloca ptr, align 8
  store ptr %0, ptr %2, align 8, !tbaa !200
  %3 = load ptr, ptr %2, align 8
  %4 = getelementptr inbounds nuw %"struct.nanobind::detail::tuple.72", ptr %3, i32 0, i32 0
  ret ptr %4
}

; Function Attrs: alwaysinline mustprogress optsize uwtable
define internal noundef ptr @"_ZZN8nanobind6detail11func_createILb0ELb1EZL27nanobind_init_test_enum_extRNS_7module_EE3$_8iJ5SEnumEJLm0EEJNS_5scopeENS_4nameENS_3argEEEEP7_objectOT1_PFT2_DpT3_ESt16integer_sequenceImJXspT4_EEEDpRKT5_ENKUlPvPSA_PhNS_9rv_policyEPNS0_12cleanup_listEE_clESO_SP_SQ_SR_ST_"(ptr noundef nonnull align 1 dereferenceable(1) %0, ptr noundef %1, ptr noundef %2, ptr noundef %3, i32 noundef %4, ptr noundef %5) #3 align 2 {
  %7 = alloca ptr, align 8
  %8 = alloca ptr, align 8
  %9 = alloca ptr, align 8
  %10 = alloca ptr, align 8
  %11 = alloca ptr, align 8
  %12 = alloca i32, align 4
  %13 = alloca ptr, align 8
  %14 = alloca ptr, align 8
  %15 = alloca %"struct.nanobind::detail::tuple.72", align 4
  %16 = alloca %"class.nanobind::handle", align 8
  %17 = alloca i32, align 4
  %18 = alloca ptr, align 8
  %19 = alloca %"class.nanobind::handle", align 8
  store ptr %0, ptr %8, align 8, !tbaa !58
  store ptr %1, ptr %9, align 8, !tbaa !58
  store ptr %2, ptr %10, align 8, !tbaa !125
  store ptr %3, ptr %11, align 8, !tbaa !31
  store i32 %4, ptr %12, align 4, !tbaa !127
  store ptr %5, ptr %13, align 8, !tbaa !129
  call void @llvm.lifetime.start.p0(i64 8, ptr %14) #15
  %20 = load ptr, ptr %9, align 8, !tbaa !58
  store ptr %20, ptr %14, align 8, !tbaa !196
  call void @llvm.lifetime.start.p0(i64 4, ptr %15) #15
  %21 = call noundef nonnull align 4 dereferenceable(4) ptr @_ZN8nanobind6detail5tupleIJNS0_11type_casterI5SEnumiEEEE3getILm0EEERDav(ptr noundef nonnull align 4 dereferenceable(4) %15) #14
  %22 = load ptr, ptr %10, align 8, !tbaa !125
  %23 = getelementptr inbounds nuw ptr, ptr %22, i64 0
  %24 = load ptr, ptr %23, align 8, !tbaa !3
  call void @_ZN8nanobind6handleC2EPK7_object(ptr noundef nonnull align 8 dereferenceable(8) %16, ptr noundef %24) #14
  %25 = load ptr, ptr %11, align 8, !tbaa !31
  %26 = getelementptr inbounds nuw i8, ptr %25, i64 0
  %27 = load i8, ptr %26, align 1, !tbaa !22
  %28 = load ptr, ptr %13, align 8, !tbaa !129
  %29 = getelementptr inbounds nuw %"class.nanobind::handle", ptr %16, i32 0, i32 0
  %30 = load ptr, ptr %29, align 8
  %31 = call noundef zeroext i1 @_ZN8nanobind6detail11type_casterI5SEnumiE11from_pythonENS_6handleEhPNS0_12cleanup_listE(ptr noundef nonnull align 4 dereferenceable(4) %21, ptr %30, i8 noundef zeroext %27, ptr noundef %28) #16
  br i1 %31, label %33, label %32

32:                                               ; preds = %6
  store ptr inttoptr (i64 1 to ptr), ptr %7, align 8
  store i32 1, ptr %17, align 4
  br label %45

33:                                               ; preds = %6
  call void @llvm.lifetime.start.p0(i64 8, ptr %18) #15
  call void @llvm.lifetime.start.p0(i64 8, ptr %19) #15
  %34 = load ptr, ptr %14, align 8, !tbaa !196
  %35 = call noundef nonnull align 4 dereferenceable(4) ptr @_ZN8nanobind6detail5tupleIJNS0_11type_casterI5SEnumiEEEE3getILm0EEERDav(ptr noundef nonnull align 4 dereferenceable(4) %15) #14
  %36 = call noundef nonnull align 4 dereferenceable(4) ptr @_ZN8nanobind6detail11type_casterI5SEnumiEcvOS2_Ev(ptr noundef nonnull align 4 dereferenceable(4) %35) #14
  %37 = load i32, ptr %36, align 4, !tbaa !20
  %38 = call noundef i32 @"_ZZL27nanobind_init_test_enum_extRN8nanobind7module_EENK3$_8clE5SEnum"(ptr noundef nonnull align 1 dereferenceable(1) %34, i32 noundef %37) #14
  %39 = load i32, ptr %12, align 4, !tbaa !127
  %40 = load ptr, ptr %13, align 8, !tbaa !129
  %41 = call ptr @_ZN8nanobind6detail11type_casterIiiE8from_cppEiNS_9rv_policyEPNS0_12cleanup_listE(i32 noundef %38, i32 noundef %39, ptr noundef %40) #16
  %42 = getelementptr inbounds nuw %"class.nanobind::handle", ptr %19, i32 0, i32 0
  store ptr %41, ptr %42, align 8
  %43 = call noundef ptr @_ZNK8nanobind6handle3ptrEv(ptr noundef nonnull align 8 dereferenceable(8) %19) #14
  store ptr %43, ptr %18, align 8, !tbaa !3
  call void @llvm.lifetime.end.p0(i64 8, ptr %19) #15
  %44 = load ptr, ptr %18, align 8, !tbaa !3
  store ptr %44, ptr %7, align 8
  store i32 1, ptr %17, align 4
  call void @llvm.lifetime.end.p0(i64 8, ptr %18) #15
  br label %45

45:                                               ; preds = %33, %32
  call void @llvm.lifetime.end.p0(i64 4, ptr %15) #15
  call void @llvm.lifetime.end.p0(i64 8, ptr %14) #15
  %46 = load ptr, ptr %7, align 8
  ret ptr %46
}

; Function Attrs: inlinehint mustprogress optsize uwtable
define internal noundef ptr @"_ZZN8nanobind6detail11func_createILb0ELb1EZL27nanobind_init_test_enum_extRNS_7module_EE3$_8iJ5SEnumEJLm0EEJNS_5scopeENS_4nameENS_3argEEEEP7_objectOT1_PFT2_DpT3_ESt16integer_sequenceImJXspT4_EEEDpRKT5_ENUlPvPSA_PhNS_9rv_policyEPNS0_12cleanup_listEE_8__invokeESO_SP_SQ_SR_ST_"(ptr noundef %0, ptr noundef %1, ptr noundef %2, i32 noundef %3, ptr noundef %4) #9 align 2 {
  %6 = alloca ptr, align 8
  %7 = alloca ptr, align 8
  %8 = alloca ptr, align 8
  %9 = alloca i32, align 4
  %10 = alloca ptr, align 8
  %11 = alloca %class.anon.70, align 1
  store ptr %0, ptr %6, align 8, !tbaa !58
  store ptr %1, ptr %7, align 8, !tbaa !125
  store ptr %2, ptr %8, align 8, !tbaa !31
  store i32 %3, ptr %9, align 4, !tbaa !127
  store ptr %4, ptr %10, align 8, !tbaa !129
  %12 = load ptr, ptr %6, align 8, !tbaa !58
  %13 = load ptr, ptr %7, align 8, !tbaa !125
  %14 = load ptr, ptr %8, align 8, !tbaa !31
  %15 = load i32, ptr %9, align 4, !tbaa !127
  %16 = load ptr, ptr %10, align 8, !tbaa !129
  %17 = call noundef ptr @"_ZZN8nanobind6detail11func_createILb0ELb1EZL27nanobind_init_test_enum_extRNS_7module_EE3$_8iJ5SEnumEJLm0EEJNS_5scopeENS_4nameENS_3argEEEEP7_objectOT1_PFT2_DpT3_ESt16integer_sequenceImJXspT4_EEEDpRKT5_ENKUlPvPSA_PhNS_9rv_policyEPNS0_12cleanup_listEE_clESO_SP_SQ_SR_ST_"(ptr noundef nonnull align 1 dereferenceable(1) %11, ptr noundef %12, ptr noundef %13, ptr noundef %14, i32 noundef %15, ptr noundef %16) #14
  ret ptr %17
}